; Function Attrs: mustprogress uwtable
define hidden void @_ZN17opencv_tensorflow11FunctionDef8CopyFromERKS0_(ptr noundef nonnull align 8 dereferenceable(56) %0, ptr noundef nonnull align 8 dereferenceable(56) %1) local_unnamed_addr #3 align 2 personality ptr @__gxx_personality_v0 {
  %3 = icmp eq ptr %1, %0
  br i1 %3, label %31, label %4

4:                                                ; preds = %2
  %5 = getelementptr inbounds nuw i8, ptr %0, i64 24
  %6 = load i32, ptr %5, align 8, !tbaa !20
  %7 = icmp sgt i32 %6, 0
  br i1 %7, label %8, label %_ZN6google8protobuf16RepeatedPtrFieldIN17opencv_tensorflow16FunctionDef_NodeEE5ClearEv.exit.i

8:                                                ; preds = %4
  %9 = getelementptr inbounds nuw i8, ptr %0, i64 32
  %10 = load ptr, ptr %9, align 8, !tbaa !16
  %11 = getelementptr inbounds nuw i8, ptr %10, i64 8
  %wide.trip.count.i.i.i = zext nneg i32 %6 to i64
  br label %12

12:                                               ; preds = %12, %8
  %indvars.iv.i.i.i = phi i64 [ %indvars.iv.next.i.i.i, %12 ], [ 0, %8 ]
  %indvars.iv.next.i.i.i = add nuw nsw i64 %indvars.iv.i.i.i, 1
  %13 = getelementptr inbounds nuw ptr, ptr %11, i64 %indvars.iv.i.i.i
  %14 = load ptr, ptr %13, align 8, !tbaa !25
  tail call void @_ZN17opencv_tensorflow16FunctionDef_Node5ClearEv(ptr noundef nonnull align 8 dereferenceable(224) %14)
  %exitcond.not.i.i.i = icmp eq i64 %indvars.iv.next.i.i.i, %wide.trip.count.i.i.i
  br i1 %exitcond.not.i.i.i, label %15, label %12, !llvm.loop !201

15:                                               ; preds = %12
  store i32 0, ptr %5, align 8, !tbaa !20
  br label %_ZN6google8protobuf16RepeatedPtrFieldIN17opencv_tensorflow16FunctionDef_NodeEE5ClearEv.exit.i

_ZN6google8protobuf16RepeatedPtrFieldIN17opencv_tensorflow16FunctionDef_NodeEE5ClearEv.exit.i: ; preds = %15, %4
  %16 = getelementptr inbounds nuw i8, ptr %0, i64 8
  %17 = load i64, ptr %16, align 8, !tbaa !3
  %18 = and i64 %17, 1
  %.not.i.i = icmp eq i64 %18, 0
  %19 = and i64 %17, -4
  %20 = inttoptr i64 %19 to ptr
  br i1 %.not.i.i, label %_ZNK6google8protobuf11MessageLite21GetArenaForAllocationEv.exit.i, label %21, !prof !17

21:                                               ; preds = %_ZN6google8protobuf16RepeatedPtrFieldIN17opencv_tensorflow16FunctionDef_NodeEE5ClearEv.exit.i
  %22 = load ptr, ptr %20, align 8, !tbaa !18
  br label %_ZNK6google8protobuf11MessageLite21GetArenaForAllocationEv.exit.i

_ZNK6google8protobuf11MessageLite21GetArenaForAllocationEv.exit.i: ; preds = %21, %_ZN6google8protobuf16RepeatedPtrFieldIN17opencv_tensorflow16FunctionDef_NodeEE5ClearEv.exit.i
  %.0.i.i.i = phi ptr [ %22, %21 ], [ %20, %_ZN6google8protobuf16RepeatedPtrFieldIN17opencv_tensorflow16FunctionDef_NodeEE5ClearEv.exit.i ]
  %23 = icmp eq ptr %.0.i.i.i, null
  br i1 %23, label %24, label %28

24:                                               ; preds = %_ZNK6google8protobuf11MessageLite21GetArenaForAllocationEv.exit.i
  %25 = getelementptr inbounds nuw i8, ptr %0, i64 40
  %26 = load ptr, ptr %25, align 8, !tbaa !195
  %.not.i = icmp eq ptr %26, null
  br i1 %.not.i, label %28, label %27

27:                                               ; preds = %24
  tail call void @_ZN17opencv_tensorflow5OpDefD1Ev(ptr noundef nonnull align 8 dereferenceable(128) %26) #30
  tail call void @_ZdlPv(ptr noundef nonnull %26) #31
  %.pre.i = load i64, ptr %16, align 8, !tbaa !3
  %.pre2.i = and i64 %.pre.i, 1
  br label %28

28:                                               ; preds = %27, %24, %_ZNK6google8protobuf11MessageLite21GetArenaForAllocationEv.exit.i
  %.pre-phi.i = phi i64 [ %.pre2.i, %27 ], [ %18, %24 ], [ %18, %_ZNK6google8protobuf11MessageLite21GetArenaForAllocationEv.exit.i ]
  %29 = getelementptr inbounds nuw i8, ptr %0, i64 40
  store ptr null, ptr %29, align 8, !tbaa !195
  %.not1.i = icmp eq i64 %.pre-phi.i, 0
  br i1 %.not1.i, label %_ZN17opencv_tensorflow11FunctionDef5ClearEv.exit, label %30

30:                                               ; preds = %28
  tail call void @_ZN6google8protobuf8internal16InternalMetadata7DoClearINS0_15UnknownFieldSetEEEvv(ptr noundef nonnull align 8 dereferenceable(8) %16)
  br label %_ZN17opencv_tensorflow11FunctionDef5ClearEv.exit

_ZN17opencv_tensorflow11FunctionDef5ClearEv.exit: ; preds = %28, %30
  tail call void @_ZN17opencv_tensorflow11FunctionDef9MergeFromERKS0_(ptr noundef nonnull align 8 dereferenceable(56) %0, ptr noundef nonnull align 8 dereferenceable(56) %1)
  br label %31

31:                                               ; preds = %2, %_ZN17opencv_tensorflow11FunctionDef5ClearEv.exit
  ret void
}